target datalayout = "e-m:e-p270:32:32-p271:32:32-p272:64:64-i64:64-i128:128-f80:128-n8:16:32:64-S128"
target triple = "x86_64-pc-linux-gnu"

%"struct.vcpkg::StringView" = type { ptr, i64 }
%"struct.__gnu_cxx::__ops::_Iter_pred" = type { %class.anon }
%class.anon = type { i8 }
%"struct.__gnu_cxx::__ops::_Iter_negate" = type { %class.anon }

@.str.9 = private unnamed_addr constant [2 x i8] c"0\00", align 1

; Function Attrs: mustprogress nounwind uwtable
define internal noundef zeroext i1 @"_ZZN5vcpkg32normalize_external_version_zerosENS_10StringViewEENK3$_0clEc"(ptr noundef nonnull align 1 dereferenceable(1) %0, i8 noundef signext %1) #0 align 2 {
  %3 = alloca ptr, align 8
  %4 = alloca i8, align 1
  store ptr %0, ptr %3, align 8
  store i8 %1, ptr %4, align 1
  %5 = load i8, ptr %4, align 1
  %6 = sext i8 %5 to i32
  %7 = icmp eq i32 %6, 48
  ret i1 %7
}

; Function Attrs: mustprogress uwtable
define internal noundef zeroext i1 @"_ZN9__gnu_cxx5__ops12_Iter_negateIZN5vcpkg32normalize_external_version_zerosENS2_10StringViewEE3$_0EclIPKcEEbT_"(ptr noundef nonnull align 1 dereferenceable(1) %0, ptr noundef %1) #2 align 2 {
  %3 = alloca ptr, align 8
  %4 = alloca ptr, align 8
  store ptr %0, ptr %3, align 8
  store ptr %1, ptr %4, align 8
  %5 = load ptr, ptr %3, align 8
  %6 = getelementptr inbounds %"struct.__gnu_cxx::__ops::_Iter_negate", ptr %5, i32 0, i32 0
  %7 = load ptr, ptr %4, align 8
  %8 = load i8, ptr %7, align 1
  %9 = call noundef zeroext i1 @"_ZZN5vcpkg32normalize_external_version_zerosENS_10StringViewEENK3$_0clEc"(ptr noundef nonnull align 1 dereferenceable(1) %6, i8 noundef signext %8)
  %10 = xor i1 %9, true
  ret i1 %10
}

; Function Attrs: mustprogress nounwind uwtable
define internal void @"_ZN9__gnu_cxx5__ops12_Iter_negateIZN5vcpkg32normalize_external_version_zerosENS2_10StringViewEE3$_0EC2ES4_"(ptr noundef nonnull align 1 dereferenceable(1) %0) unnamed_addr #0 align 2 {
  %2 = alloca ptr, align 8
  store ptr %0, ptr %2, align 8
  ret void
}

; Function Attrs: mustprogress uwtable
define internal noundef ptr @"_ZSt9__find_ifIPKcN9__gnu_cxx5__ops12_Iter_negateIZN5vcpkg32normalize_external_version_zerosENS5_10StringViewEE3$_0EEET_S9_S9_T0_St26random_access_iterator_tag"(ptr noundef %0, ptr noundef %1) #2 {
  %3 = alloca ptr, align 8
  %4 = alloca %"struct.__gnu_cxx::__ops::_Iter_negate", align 1
  %5 = alloca ptr, align 8
  %6 = alloca ptr, align 8
  %7 = alloca i64, align 8
  store ptr %0, ptr %5, align 8
  store ptr %1, ptr %6, align 8
  %8 = load ptr, ptr %6, align 8
  %9 = load ptr, ptr %5, align 8
  %10 = ptrtoint ptr %8 to i64
  %11 = ptrtoint ptr %9 to i64
  %12 = sub i64 %10, %11
  %13 = ashr i64 %12, 2
  store i64 %13, ptr %7, align 8
  br label %14

14:                                               ; preds = %46, %2
  %15 = load i64, ptr %7, align 8
  %16 = icmp sgt i64 %15, 0
  br i1 %16, label %17, label %49

17:                                               ; preds = %14
  %18 = load ptr, ptr %5, align 8
  %19 = call noundef zeroext i1 @"_ZN9__gnu_cxx5__ops12_Iter_negateIZN5vcpkg32normalize_external_version_zerosENS2_10StringViewEE3$_0EclIPKcEEbT_"(ptr noundef nonnull align 1 dereferenceable(1) %4, ptr noundef %18)
  br i1 %19, label %20, label %22

20:                                               ; preds = %17
  %21 = load ptr, ptr %5, align 8
  store ptr %21, ptr %3, align 8
  br label %82

22:                                               ; preds = %17
  %23 = load ptr, ptr %5, align 8
  %24 = getelementptr inbounds i8, ptr %23, i32 1
  store ptr %24, ptr %5, align 8
  %25 = load ptr, ptr %5, align 8
  %26 = call noundef zeroext i1 @"_ZN9__gnu_cxx5__ops12_Iter_negateIZN5vcpkg32normalize_external_version_zerosENS2_10StringViewEE3$_0EclIPKcEEbT_"(ptr noundef nonnull align 1 dereferenceable(1) %4, ptr noundef %25)
  br i1 %26, label %27, label %29

27:                                               ; preds = %22
  %28 = load ptr, ptr %5, align 8
  store ptr %28, ptr %3, align 8
  br label %82

29:                                               ; preds = %22
  %30 = load ptr, ptr %5, align 8
  %31 = getelementptr inbounds i8, ptr %30, i32 1
  store ptr %31, ptr %5, align 8
  %32 = load ptr, ptr %5, align 8
  %33 = call noundef zeroext i1 @"_ZN9__gnu_cxx5__ops12_Iter_negateIZN5vcpkg32normalize_external_version_zerosENS2_10StringViewEE3$_0EclIPKcEEbT_"(ptr noundef nonnull align 1 dereferenceable(1) %4, ptr noundef %32)
  br i1 %33, label %34, label %36

34:                                               ; preds = %29
  %35 = load ptr, ptr %5, align 8
  store ptr %35, ptr %3, align 8
  br label %82

36:                                               ; preds = %29
  %37 = load ptr, ptr %5, align 8
  %38 = getelementptr inbounds i8, ptr %37, i32 1
  store ptr %38, ptr %5, align 8
  %39 = load ptr, ptr %5, align 8
  %40 = call noundef zeroext i1 @"_ZN9__gnu_cxx5__ops12_Iter_negateIZN5vcpkg32normalize_external_version_zerosENS2_10StringViewEE3$_0EclIPKcEEbT_"(ptr noundef nonnull align 1 dereferenceable(1) %4, ptr noundef %39)
  br i1 %40, label %41, label %43

41:                                               ; preds = %36
  %42 = load ptr, ptr %5, align 8
  store ptr %42, ptr %3, align 8
  br label %82

43:                                               ; preds = %36
  %44 = load ptr, ptr %5, align 8
  %45 = getelementptr inbounds i8, ptr %44, i32 1
  store ptr %45, ptr %5, align 8
  br label %46

46:                                               ; preds = %43
  %47 = load i64, ptr %7, align 8
  %48 = add nsw i64 %47, -1
  store i64 %48, ptr %7, align 8
  br label %14, !llvm.loop !44

49:                                               ; preds = %14
  %50 = load ptr, ptr %6, align 8
  %51 = load ptr, ptr %5, align 8
  %52 = ptrtoint ptr %50 to i64
  %53 = ptrtoint ptr %51 to i64
  %54 = sub i64 %52, %53
  switch i64 %54, label %80 [
    i64 3, label %55
    i64 2, label %63
    i64 1, label %71
    i64 0, label %79
  ]

55:                                               ; preds = %49
  %56 = load ptr, ptr %5, align 8
  %57 = call noundef zeroext i1 @"_ZN9__gnu_cxx5__ops12_Iter_negateIZN5vcpkg32normalize_external_version_zerosENS2_10StringViewEE3$_0EclIPKcEEbT_"(ptr noundef nonnull align 1 dereferenceable(1) %4, ptr noundef %56)
  br i1 %57, label %58, label %60

58:                                               ; preds = %55
  %59 = load ptr, ptr %5, align 8
  store ptr %59, ptr %3, align 8
  br label %82

60:                                               ; preds = %55
  %61 = load ptr, ptr %5, align 8
  %62 = getelementptr inbounds i8, ptr %61, i32 1
  store ptr %62, ptr %5, align 8
  br label %63

63:                                               ; preds = %60, %49
  %64 = load ptr, ptr %5, align 8
  %65 = call noundef zeroext i1 @"_ZN9__gnu_cxx5__ops12_Iter_negateIZN5vcpkg32normalize_external_version_zerosENS2_10StringViewEE3$_0EclIPKcEEbT_"(ptr noundef nonnull align 1 dereferenceable(1) %4, ptr noundef %64)
  br i1 %65, label %66, label %68

66:                                               ; preds = %63
  %67 = load ptr, ptr %5, align 8
  store ptr %67, ptr %3, align 8
  br label %82

68:                                               ; preds = %63
  %69 = load ptr, ptr %5, align 8
  %70 = getelementptr inbounds i8, ptr %69, i32 1
  store ptr %70, ptr %5, align 8
  br label %71

71:                                               ; preds = %68, %49
  %72 = load ptr, ptr %5, align 8
  %73 = call noundef zeroext i1 @"_ZN9__gnu_cxx5__ops12_Iter_negateIZN5vcpkg32normalize_external_version_zerosENS2_10StringViewEE3$_0EclIPKcEEbT_"(ptr noundef nonnull align 1 dereferenceable(1) %4, ptr noundef %72)
  br i1 %73, label %74, label %76

74:                                               ; preds = %71
  %75 = load ptr, ptr %5, align 8
  store ptr %75, ptr %3, align 8
  br label %82

76:                                               ; preds = %71
  %77 = load ptr, ptr %5, align 8
  %78 = getelementptr inbounds i8, ptr %77, i32 1
  store ptr %78, ptr %5, align 8
  br label %79

79:                                               ; preds = %76, %49
  br label %80

80:                                               ; preds = %79, %49
  %81 = load ptr, ptr %6, align 8
  store ptr %81, ptr %3, align 8
  br label %82

82:                                               ; preds = %80, %74, %66, %58, %41, %34, %27, %20
  %83 = load ptr, ptr %3, align 8
  ret ptr %83
}

; Function Attrs: mustprogress nounwind uwtable
define linkonce_odr dso_local void @_ZSt19__iterator_categoryIPKcENSt15iterator_traitsIT_E17iterator_categoryERKS3_(ptr noundef nonnull align 8 dereferenceable(8) %0) #0 comdat {
  %2 = alloca ptr, align 8
  store ptr %0, ptr %2, align 8
  ret void
}

; Function Attrs: mustprogress uwtable
define internal void @"_ZN9__gnu_cxx5__ops8__negateIZN5vcpkg32normalize_external_version_zerosENS2_10StringViewEE3$_0EENS0_12_Iter_negateIT_EENS0_10_Iter_predIS6_EE"() #2 {
  %1 = alloca %"struct.__gnu_cxx::__ops::_Iter_negate", align 1
  call void @"_ZN9__gnu_cxx5__ops12_Iter_negateIZN5vcpkg32normalize_external_version_zerosENS2_10StringViewEE3$_0EC2ES4_"(ptr noundef nonnull align 1 dereferenceable(1) %1)
  ret void
}

; Function Attrs: mustprogress nounwind uwtable
define internal void @"_ZN9__gnu_cxx5__ops10_Iter_predIZN5vcpkg32normalize_external_version_zerosENS2_10StringViewEE3$_0EC2ES4_"(ptr noundef nonnull align 1 dereferenceable(1) %0) unnamed_addr #0 align 2 {
  %2 = alloca ptr, align 8
  store ptr %0, ptr %2, align 8
  ret void
}

; Function Attrs: mustprogress uwtable
define internal noundef ptr @"_ZSt13__find_if_notIPKcN9__gnu_cxx5__ops10_Iter_predIZN5vcpkg32normalize_external_version_zerosENS5_10StringViewEE3$_0EEET_S9_S9_T0_"(ptr noundef %0, ptr noundef %1) #2 {
  %3 = alloca %"struct.__gnu_cxx::__ops::_Iter_pred", align 1
  %4 = alloca ptr, align 8
  %5 = alloca ptr, align 8
  %6 = alloca %"struct.__gnu_cxx::__ops::_Iter_pred", align 1
  store ptr %0, ptr %4, align 8
  store ptr %1, ptr %5, align 8
  %7 = load ptr, ptr %4, align 8
  %8 = load ptr, ptr %5, align 8
  call void @llvm.memcpy.p0.p0.i64(ptr align 1 %6, ptr align 1 %3, i64 1, i1 false)
  call void @"_ZN9__gnu_cxx5__ops8__negateIZN5vcpkg32normalize_external_version_zerosENS2_10StringViewEE3$_0EENS0_12_Iter_negateIT_EENS0_10_Iter_predIS6_EE"()
  call void @_ZSt19__iterator_categoryIPKcENSt15iterator_traitsIT_E17iterator_categoryERKS3_(ptr noundef nonnull align 8 dereferenceable(8) %4)
  %9 = call noundef ptr @"_ZSt9__find_ifIPKcN9__gnu_cxx5__ops12_Iter_negateIZN5vcpkg32normalize_external_version_zerosENS5_10StringViewEE3$_0EEET_S9_S9_T0_St26random_access_iterator_tag"(ptr noundef %7, ptr noundef %8)
  ret ptr %9
}

; Function Attrs: mustprogress uwtable
define internal void @"_ZN9__gnu_cxx5__ops11__pred_iterIZN5vcpkg32normalize_external_version_zerosENS2_10StringViewEE3$_0EENS0_10_Iter_predIT_EES6_"() #2 {
  %1 = alloca %"struct.__gnu_cxx::__ops::_Iter_pred", align 1
  call void @"_ZN9__gnu_cxx5__ops10_Iter_predIZN5vcpkg32normalize_external_version_zerosENS2_10StringViewEE3$_0EC2ES4_"(ptr noundef nonnull align 1 dereferenceable(1) %1)
  ret void
}

; Function Attrs: mustprogress nounwind uwtable
define linkonce_odr dso_local void @_ZN5vcpkg10StringViewC2EPKcS2_(ptr noundef nonnull align 8 dereferenceable(16) %0, ptr noundef %1, ptr noundef %2) unnamed_addr #0 comdat align 2 {
  %4 = alloca ptr, align 8
  %5 = alloca ptr, align 8
  %6 = alloca ptr, align 8
  store ptr %0, ptr %4, align 8
  store ptr %1, ptr %5, align 8
  store ptr %2, ptr %6, align 8
  %7 = load ptr, ptr %4, align 8
  %8 = getelementptr inbounds %"struct.vcpkg::StringView", ptr %7, i32 0, i32 0
  %9 = load ptr, ptr %5, align 8
  store ptr %9, ptr %8, align 8
  %10 = getelementptr inbounds %"struct.vcpkg::StringView", ptr %7, i32 0, i32 1
  %11 = load ptr, ptr %6, align 8
  %12 = load ptr, ptr %5, align 8
  %13 = ptrtoint ptr %11 to i64
  %14 = ptrtoint ptr %12 to i64
  %15 = sub i64 %13, %14
  store i64 %15, ptr %10, align 8
  ret void
}

; Function Attrs: mustprogress uwtable
define internal noundef ptr @"_ZSt11find_if_notIPKcZN5vcpkg32normalize_external_version_zerosENS2_10StringViewEE3$_0ET_S5_S5_T0_"(ptr noundef %0, ptr noundef %1) #2 {
  %3 = alloca ptr, align 8
  %4 = alloca ptr, align 8
  store ptr %0, ptr %3, align 8
  store ptr %1, ptr %4, align 8
  %5 = load ptr, ptr %3, align 8
  %6 = load ptr, ptr %4, align 8
  call void @"_ZN9__gnu_cxx5__ops11__pred_iterIZN5vcpkg32normalize_external_version_zerosENS2_10StringViewEE3$_0EENS0_10_Iter_predIT_EES6_"()
  %7 = call noundef ptr @"_ZSt13__find_if_notIPKcN9__gnu_cxx5__ops10_Iter_predIZN5vcpkg32normalize_external_version_zerosENS5_10StringViewEE3$_0EEET_S9_S9_T0_"(ptr noundef %5, ptr noundef %6)
  ret ptr %7
}

; Function Attrs: mustprogress nounwind uwtable
define linkonce_odr dso_local noundef ptr @_ZNK5vcpkg10StringView3endEv(ptr noundef nonnull align 8 dereferenceable(16) %0) #0 comdat align 2 {
  %2 = alloca ptr, align 8
  store ptr %0, ptr %2, align 8
  %3 = load ptr, ptr %2, align 8
  %4 = getelementptr inbounds %"struct.vcpkg::StringView", ptr %3, i32 0, i32 0
  %5 = load ptr, ptr %4, align 8
  %6 = getelementptr inbounds %"struct.vcpkg::StringView", ptr %3, i32 0, i32 1
  %7 = load i64, ptr %6, align 8
  %8 = getelementptr inbounds i8, ptr %5, i64 %7
  ret ptr %8
}

; Function Attrs: mustprogress nounwind uwtable
define linkonce_odr dso_local noundef ptr @_ZNK5vcpkg10StringView5beginEv(ptr noundef nonnull align 8 dereferenceable(16) %0) #0 comdat align 2 {
  %2 = alloca ptr, align 8
  store ptr %0, ptr %2, align 8
  %3 = load ptr, ptr %2, align 8
  %4 = getelementptr inbounds %"struct.vcpkg::StringView", ptr %3, i32 0, i32 0
  %5 = load ptr, ptr %4, align 8
  ret ptr %5
}

; Function Attrs: mustprogress nounwind uwtable
define linkonce_odr dso_local void @_ZN5vcpkg10StringViewC2EPKc(ptr noundef nonnull align 8 dereferenceable(16) %0, ptr noundef %1) unnamed_addr #0 comdat align 2 {
  %3 = alloca ptr, align 8
  %4 = alloca ptr, align 8
  store ptr %0, ptr %3, align 8
  store ptr %1, ptr %4, align 8
  %5 = load ptr, ptr %3, align 8
  %6 = getelementptr inbounds %"struct.vcpkg::StringView", ptr %5, i32 0, i32 0
  %7 = load ptr, ptr %4, align 8
  store ptr %7, ptr %6, align 8
  %8 = getelementptr inbounds %"struct.vcpkg::StringView", ptr %5, i32 0, i32 1
  %9 = load ptr, ptr %4, align 8
  %10 = call i64 @strlen(ptr noundef %9) #16
  store i64 %10, ptr %8, align 8
  ret void
}

; Function Attrs: mustprogress nounwind uwtable
define linkonce_odr dso_local noundef zeroext i1 @_ZNK5vcpkg10StringView5emptyEv(ptr noundef nonnull align 8 dereferenceable(16) %0) #0 comdat align 2 {
  %2 = alloca ptr, align 8
  store ptr %0, ptr %2, align 8
  %3 = load ptr, ptr %2, align 8
  %4 = getelementptr inbounds %"struct.vcpkg::StringView", ptr %3, i32 0, i32 1
  %5 = load i64, ptr %4, align 8
  %6 = icmp eq i64 %5, 0
  ret i1 %6
}

; Function Attrs: mustprogress uwtable
define dso_local { ptr, i64 } @_ZN5vcpkg32normalize_external_version_zerosENS_10StringViewE(ptr %0, i64 %1) #2 {
  %3 = alloca %"struct.vcpkg::StringView", align 8
  %4 = alloca %"struct.vcpkg::StringView", align 8
  %5 = alloca ptr, align 8
  %6 = getelementptr inbounds { ptr, i64 }, ptr %4, i32 0, i32 0
  store ptr %0, ptr %6, align 8
  %7 = getelementptr inbounds { ptr, i64 }, ptr %4, i32 0, i32 1
  store i64 %1, ptr %7, align 8
  %8 = call noundef zeroext i1 @_ZNK5vcpkg10StringView5emptyEv(ptr noundef nonnull align 8 dereferenceable(16) %4) #13
  br i1 %8, label %9, label %10

9:                                                ; preds = %2
  call void @_ZN5vcpkg10StringViewC2EPKc(ptr noundef nonnull align 8 dereferenceable(16) %3, ptr noundef @.str.9) #13
  br label %24

10:                                               ; preds = %2
  %11 = call noundef ptr @_ZNK5vcpkg10StringView5beginEv(ptr noundef nonnull align 8 dereferenceable(16) %4) #13
  %12 = call noundef ptr @_ZNK5vcpkg10StringView3endEv(ptr noundef nonnull align 8 dereferenceable(16) %4) #13
  %13 = call noundef ptr @"_ZSt11find_if_notIPKcZN5vcpkg32normalize_external_version_zerosENS2_10StringViewEE3$_0ET_S5_S5_T0_"(ptr noundef %11, ptr noundef %12)
  store ptr %13, ptr %5, align 8
  %14 = load ptr, ptr %5, align 8
  %15 = call noundef ptr @_ZNK5vcpkg10StringView3endEv(ptr noundef nonnull align 8 dereferenceable(16) %4) #13
  %16 = icmp eq ptr %14, %15
  br i1 %16, label %17, label %21

17:                                               ; preds = %10
  %18 = call noundef ptr @_ZNK5vcpkg10StringView3endEv(ptr noundef nonnull align 8 dereferenceable(16) %4) #13
  %19 = getelementptr inbounds i8, ptr %18, i64 -1
  %20 = call noundef ptr @_ZNK5vcpkg10StringView3endEv(ptr noundef nonnull align 8 dereferenceable(16) %4) #13
  call void @_ZN5vcpkg10StringViewC2EPKcS2_(ptr noundef nonnull align 8 dereferenceable(16) %3, ptr noundef %19, ptr noundef %20) #13
  br label %24

21:                                               ; preds = %10
  %22 = load ptr, ptr %5, align 8
  %23 = call noundef ptr @_ZNK5vcpkg10StringView3endEv(ptr noundef nonnull align 8 dereferenceable(16) %4) #13
  call void @_ZN5vcpkg10StringViewC2EPKcS2_(ptr noundef nonnull align 8 dereferenceable(16) %3, ptr noundef %22, ptr noundef %23) #13
  br label %24

24:                                               ; preds = %21, %17, %9
  %25 = load { ptr, i64 }, ptr %3, align 8
  ret { ptr, i64 } %25
}