; Function Attrs: mustprogress nofree norecurse nosync nounwind willreturn memory(read, inaccessiblemem: none) uwtable
define dso_local { ptr, i64 } @_ZN5vcpkg32normalize_external_version_zerosENS_10StringViewE(ptr %0, i64 %1) local_unnamed_addr #9 {
  %3 = icmp eq i64 %1, 0
  br i1 %3, label %36, label %4

4:                                                ; preds = %2
  %5 = getelementptr inbounds i8, ptr %0, i64 %1
  %6 = ptrtoint ptr %5 to i64
  %7 = ashr i64 %1, 2
  %8 = icmp sgt i64 %7, 0
  br i1 %8, label %.lr.ph.preheader.i.i.i, label %._crit_edge.i.i.i

.lr.ph.preheader.i.i.i:                           ; preds = %4
  %9 = and i64 %1, -4
  %scevgep.i.i.i = getelementptr i8, ptr %0, i64 %9
  br label %.lr.ph.i.i.i

.lr.ph.i.i.i:                                     ; preds = %16, %.lr.ph.preheader.i.i.i
  %.050.i.i.i = phi i64 [ %18, %16 ], [ %7, %.lr.ph.preheader.i.i.i ]
  %.02949.i.i.i = phi ptr [ %17, %16 ], [ %0, %.lr.ph.preheader.i.i.i ]
  %.029.val.i.i.i = load i8, ptr %.02949.i.i.i, align 1
  %.not35.i.i.i = icmp eq i8 %.029.val.i.i.i, 48
  br i1 %.not35.i.i.i, label %10, label %"_ZSt11find_if_notIPKcZN5vcpkg32normalize_external_version_zerosENS2_10StringViewEE3$_0ET_S5_S5_T0_.exit"

10:                                               ; preds = %.lr.ph.i.i.i
  %11 = getelementptr inbounds i8, ptr %.02949.i.i.i, i64 1
  %.val.i.i.i = load i8, ptr %11, align 1
  %.not36.i.i.i = icmp eq i8 %.val.i.i.i, 48
  br i1 %.not36.i.i.i, label %12, label %"_ZSt11find_if_notIPKcZN5vcpkg32normalize_external_version_zerosENS2_10StringViewEE3$_0ET_S5_S5_T0_.exit.loopexit.split.loop.exit"

12:                                               ; preds = %10
  %13 = getelementptr inbounds i8, ptr %.02949.i.i.i, i64 2
  %.val30.i.i.i = load i8, ptr %13, align 1
  %.not37.i.i.i = icmp eq i8 %.val30.i.i.i, 48
  br i1 %.not37.i.i.i, label %14, label %"_ZSt11find_if_notIPKcZN5vcpkg32normalize_external_version_zerosENS2_10StringViewEE3$_0ET_S5_S5_T0_.exit.loopexit.split.loop.exit26"

14:                                               ; preds = %12
  %15 = getelementptr inbounds i8, ptr %.02949.i.i.i, i64 3
  %.val31.i.i.i = load i8, ptr %15, align 1
  %.not38.i.i.i = icmp eq i8 %.val31.i.i.i, 48
  br i1 %.not38.i.i.i, label %16, label %"_ZSt11find_if_notIPKcZN5vcpkg32normalize_external_version_zerosENS2_10StringViewEE3$_0ET_S5_S5_T0_.exit.loopexit.split.loop.exit28"

16:                                               ; preds = %14
  %17 = getelementptr inbounds i8, ptr %.02949.i.i.i, i64 4
  %18 = add nsw i64 %.050.i.i.i, -1
  %19 = icmp sgt i64 %.050.i.i.i, 1
  br i1 %19, label %.lr.ph.i.i.i, label %._crit_edge.i.i.i, !llvm.loop !104

._crit_edge.i.i.i:                                ; preds = %16, %4
  %.029.lcssa.i.i.i = phi ptr [ %0, %4 ], [ %scevgep.i.i.i, %16 ]
  %.pre-phi.i.i.i = ptrtoint ptr %.029.lcssa.i.i.i to i64
  %20 = sub i64 %6, %.pre-phi.i.i.i
  switch i64 %20, label %"_ZSt11find_if_notIPKcZN5vcpkg32normalize_external_version_zerosENS2_10StringViewEE3$_0ET_S5_S5_T0_.exit.thread" [
    i64 3, label %21
    i64 2, label %24
    i64 1, label %27
  ]

21:                                               ; preds = %._crit_edge.i.i.i
  %.029.val32.i.i.i = load i8, ptr %.029.lcssa.i.i.i, align 1
  %.not.i.i.i = icmp eq i8 %.029.val32.i.i.i, 48
  br i1 %.not.i.i.i, label %22, label %"_ZSt11find_if_notIPKcZN5vcpkg32normalize_external_version_zerosENS2_10StringViewEE3$_0ET_S5_S5_T0_.exit"

22:                                               ; preds = %21
  %23 = getelementptr inbounds i8, ptr %.029.lcssa.i.i.i, i64 1
  br label %24

24:                                               ; preds = %22, %._crit_edge.i.i.i
  %.1.i.i.i = phi ptr [ %.029.lcssa.i.i.i, %._crit_edge.i.i.i ], [ %23, %22 ]
  %.1.val.i.i.i = load i8, ptr %.1.i.i.i, align 1
  %.not33.i.i.i = icmp eq i8 %.1.val.i.i.i, 48
  br i1 %.not33.i.i.i, label %25, label %"_ZSt11find_if_notIPKcZN5vcpkg32normalize_external_version_zerosENS2_10StringViewEE3$_0ET_S5_S5_T0_.exit"

25:                                               ; preds = %24
  %26 = getelementptr inbounds i8, ptr %.1.i.i.i, i64 1
  br label %27

27:                                               ; preds = %25, %._crit_edge.i.i.i
  %.2.i.i.i = phi ptr [ %.029.lcssa.i.i.i, %._crit_edge.i.i.i ], [ %26, %25 ]
  %.2.val.i.i.i = load i8, ptr %.2.i.i.i, align 1
  %.not34.i.i.i = icmp eq i8 %.2.val.i.i.i, 48
  br i1 %.not34.i.i.i, label %"_ZSt11find_if_notIPKcZN5vcpkg32normalize_external_version_zerosENS2_10StringViewEE3$_0ET_S5_S5_T0_.exit.thread", label %"_ZSt11find_if_notIPKcZN5vcpkg32normalize_external_version_zerosENS2_10StringViewEE3$_0ET_S5_S5_T0_.exit"

"_ZSt11find_if_notIPKcZN5vcpkg32normalize_external_version_zerosENS2_10StringViewEE3$_0ET_S5_S5_T0_.exit.loopexit.split.loop.exit": ; preds = %10
  %28 = getelementptr inbounds i8, ptr %.02949.i.i.i, i64 1
  br label %"_ZSt11find_if_notIPKcZN5vcpkg32normalize_external_version_zerosENS2_10StringViewEE3$_0ET_S5_S5_T0_.exit"

"_ZSt11find_if_notIPKcZN5vcpkg32normalize_external_version_zerosENS2_10StringViewEE3$_0ET_S5_S5_T0_.exit.loopexit.split.loop.exit26": ; preds = %12
  %29 = getelementptr inbounds i8, ptr %.02949.i.i.i, i64 2
  br label %"_ZSt11find_if_notIPKcZN5vcpkg32normalize_external_version_zerosENS2_10StringViewEE3$_0ET_S5_S5_T0_.exit"

"_ZSt11find_if_notIPKcZN5vcpkg32normalize_external_version_zerosENS2_10StringViewEE3$_0ET_S5_S5_T0_.exit.loopexit.split.loop.exit28": ; preds = %14
  %30 = getelementptr inbounds i8, ptr %.02949.i.i.i, i64 3
  br label %"_ZSt11find_if_notIPKcZN5vcpkg32normalize_external_version_zerosENS2_10StringViewEE3$_0ET_S5_S5_T0_.exit"

"_ZSt11find_if_notIPKcZN5vcpkg32normalize_external_version_zerosENS2_10StringViewEE3$_0ET_S5_S5_T0_.exit": ; preds = %.lr.ph.i.i.i, %"_ZSt11find_if_notIPKcZN5vcpkg32normalize_external_version_zerosENS2_10StringViewEE3$_0ET_S5_S5_T0_.exit.loopexit.split.loop.exit", %"_ZSt11find_if_notIPKcZN5vcpkg32normalize_external_version_zerosENS2_10StringViewEE3$_0ET_S5_S5_T0_.exit.loopexit.split.loop.exit26", %"_ZSt11find_if_notIPKcZN5vcpkg32normalize_external_version_zerosENS2_10StringViewEE3$_0ET_S5_S5_T0_.exit.loopexit.split.loop.exit28", %21, %24, %27
  %.028.i.i.i = phi ptr [ %.029.lcssa.i.i.i, %21 ], [ %.1.i.i.i, %24 ], [ %.2.i.i.i, %27 ], [ %28, %"_ZSt11find_if_notIPKcZN5vcpkg32normalize_external_version_zerosENS2_10StringViewEE3$_0ET_S5_S5_T0_.exit.loopexit.split.loop.exit" ], [ %29, %"_ZSt11find_if_notIPKcZN5vcpkg32normalize_external_version_zerosENS2_10StringViewEE3$_0ET_S5_S5_T0_.exit.loopexit.split.loop.exit26" ], [ %30, %"_ZSt11find_if_notIPKcZN5vcpkg32normalize_external_version_zerosENS2_10StringViewEE3$_0ET_S5_S5_T0_.exit.loopexit.split.loop.exit28" ], [ %.02949.i.i.i, %.lr.ph.i.i.i ]
  %31 = icmp eq ptr %.028.i.i.i, %5
  br i1 %31, label %"_ZSt11find_if_notIPKcZN5vcpkg32normalize_external_version_zerosENS2_10StringViewEE3$_0ET_S5_S5_T0_.exit.thread", label %33

"_ZSt11find_if_notIPKcZN5vcpkg32normalize_external_version_zerosENS2_10StringViewEE3$_0ET_S5_S5_T0_.exit.thread": ; preds = %27, %._crit_edge.i.i.i, %"_ZSt11find_if_notIPKcZN5vcpkg32normalize_external_version_zerosENS2_10StringViewEE3$_0ET_S5_S5_T0_.exit"
  %32 = getelementptr inbounds i8, ptr %5, i64 -1
  br label %36

33:                                               ; preds = %"_ZSt11find_if_notIPKcZN5vcpkg32normalize_external_version_zerosENS2_10StringViewEE3$_0ET_S5_S5_T0_.exit"
  %34 = ptrtoint ptr %.028.i.i.i to i64
  %35 = sub i64 %6, %34
  br label %36

36:                                               ; preds = %2, %33, %"_ZSt11find_if_notIPKcZN5vcpkg32normalize_external_version_zerosENS2_10StringViewEE3$_0ET_S5_S5_T0_.exit.thread"
  %.sroa.012.0 = phi ptr [ %32, %"_ZSt11find_if_notIPKcZN5vcpkg32normalize_external_version_zerosENS2_10StringViewEE3$_0ET_S5_S5_T0_.exit.thread" ], [ %.028.i.i.i, %33 ], [ @.str.9, %2 ]
  %.sroa.4.0 = phi i64 [ 1, %"_ZSt11find_if_notIPKcZN5vcpkg32normalize_external_version_zerosENS2_10StringViewEE3$_0ET_S5_S5_T0_.exit.thread" ], [ %35, %33 ], [ 1, %2 ]
  %.fca.0.insert = insertvalue { ptr, i64 } poison, ptr %.sroa.012.0, 0
  %.fca.1.insert = insertvalue { ptr, i64 } %.fca.0.insert, i64 %.sroa.4.0, 1
  ret { ptr, i64 } %.fca.1.insert
}